; Function Attrs: mustprogress uwtable
define dso_local void @_ZN3net22QuicClientPromisedInfo17OnResponseHeadersERKNS_15SpdyHeaderBlockE(ptr noundef nonnull align 8 dereferenceable(96) %this, ptr noundef nonnull align 8 dereferenceable(88) %headers) local_unnamed_addr #3 align 2 personality ptr @__gxx_personality_v0 {
entry:
  %call = tail call noalias noundef nonnull dereferenceable(88) ptr @_Znwm(i64 noundef 88) #10
  invoke void @_ZNK3net15SpdyHeaderBlock5CloneEv(ptr nonnull sret(%"class.net::SpdyHeaderBlock") align 8 %call, ptr noundef nonnull align 8 dereferenceable(88) %headers)
          to label %invoke.cont unwind label %lpad

invoke.cont:                                      ; preds = %entry
  %response_headers_ = getelementptr inbounds i8, ptr %this, i64 64
  %0 = load ptr, ptr %response_headers_, align 8
  store ptr %call, ptr %response_headers_, align 8
  %tobool.not.i.i = icmp eq ptr %0, null
  br i1 %tobool.not.i.i, label %_ZNSt10unique_ptrIN3net15SpdyHeaderBlockESt14default_deleteIS1_EE5resetEPS1_.exit, label %_ZNKSt14default_deleteIN3net15SpdyHeaderBlockEEclEPS1_.exit.i.i

_ZNKSt14default_deleteIN3net15SpdyHeaderBlockEEclEPS1_.exit.i.i: ; preds = %invoke.cont
  tail call void @_ZN3net15SpdyHeaderBlockD1Ev(ptr noundef nonnull align 8 dereferenceable(88) %0) #8
  tail call void @_ZdlPv(ptr noundef nonnull %0) #9
  br label %_ZNSt10unique_ptrIN3net15SpdyHeaderBlockESt14default_deleteIS1_EE5resetEPS1_.exit

_ZNSt10unique_ptrIN3net15SpdyHeaderBlockESt14default_deleteIS1_EE5resetEPS1_.exit: ; preds = %invoke.cont, %_ZNKSt14default_deleteIN3net15SpdyHeaderBlockEEclEPS1_.exit.i.i
  %client_request_delegate_ = getelementptr inbounds i8, ptr %this, i64 80
  %1 = load ptr, ptr %client_request_delegate_, align 8
  %tobool.not = icmp eq ptr %1, null
  br i1 %tobool.not, label %if.end, label %if.then

if.then:                                          ; preds = %_ZNSt10unique_ptrIN3net15SpdyHeaderBlockESt14default_deleteIS1_EE5resetEPS1_.exit
  %call2 = tail call noundef i32 @_ZN3net22QuicClientPromisedInfo15FinalValidationEv(ptr noundef nonnull align 8 dereferenceable(96) %this), !range !5
  br label %if.end

lpad:                                             ; preds = %entry
  %2 = landingpad { ptr, i32 }
          cleanup
  tail call void @_ZdlPv(ptr noundef nonnull %call) #9
  resume { ptr, i32 } %2

if.end:                                           ; preds = %if.then, %_ZNSt10unique_ptrIN3net15SpdyHeaderBlockESt14default_deleteIS1_EE5resetEPS1_.exit
  ret void
}